	.text
	.syntax unified
	.eabi_attribute	67, "2.09"	@ Tag_conformance
	.eabi_attribute	6, 2	@ Tag_CPU_arch
	.eabi_attribute	8, 1	@ Tag_ARM_ISA_use
	.eabi_attribute	9, 1	@ Tag_THUMB_ISA_use
	.fpu	vfpv2
	.eabi_attribute	34, 1	@ Tag_CPU_unaligned_access
	.eabi_attribute	17, 1	@ Tag_ABI_PCS_GOT_use
	.eabi_attribute	20, 1	@ Tag_ABI_FP_denormal
	.eabi_attribute	21, 0	@ Tag_ABI_FP_exceptions
	.eabi_attribute	23, 3	@ Tag_ABI_FP_number_model
	.eabi_attribute	24, 1	@ Tag_ABI_align_needed
	.eabi_attribute	25, 1	@ Tag_ABI_align_preserved
	.eabi_attribute	28, 1	@ Tag_ABI_VFP_args
	.eabi_attribute	38, 1	@ Tag_ABI_FP_16bit_format
	.eabi_attribute	18, 4	@ Tag_ABI_PCS_wchar_t
	.eabi_attribute	26, 2	@ Tag_ABI_enum_size
	.eabi_attribute	14, 0	@ Tag_ABI_PCS_R9_use
	.file	"test.c"
	.globl	say_hello                       @ -- Begin function say_hello
	.p2align	2
	.type	say_hello,%function
	.code	32                              @ @say_hello
say_hello:
.Lfunc_begin0:
	.file	0 "/home/fyj/DiskN/WCET_Tool/C_C++" "test.c" md5 0x824931c9fe6fa521db0735be2a80bd43
	.loc	0 3 0                           @ test.c:3:0
	.fnstart
	.cfi_sections .debug_frame
	.cfi_startproc
@ %bb.0:                                @ %entry
	push	{r11, lr}
	.cfi_def_cfa_offset 8
	.cfi_offset lr, -4
	.cfi_offset r11, -8
	mov	r11, sp
	.cfi_def_cfa_register r11
.Ltmp0:
	.loc	0 4 5 prologue_end              @ test.c:4:5
	ldr	r0, .LCPI0_0
	bl	printf
	.loc	0 5 1                           @ test.c:5:1
	pop	{r11, lr}
	bx	lr
.Ltmp1:
	.p2align	2
@ %bb.1:
	.loc	0 0 1 is_stmt 0                 @ test.c:0:1
.LCPI0_0:
	.long	.L.str
.Lfunc_end0:
	.size	say_hello, .Lfunc_end0-say_hello
	.cfi_endproc
	.cantunwind
	.fnend
                                        @ -- End function
	.globl	Func1                           @ -- Begin function Func1
	.p2align	2
	.type	Func1,%function
	.code	32                              @ @Func1
Func1:
.Lfunc_begin1:
	.loc	0 7 0 is_stmt 1                 @ test.c:7:0
	.fnstart
	.cfi_startproc
@ %bb.0:                                @ %entry
	sub	sp, sp, #4
	.cfi_def_cfa_offset 4
	str	r0, [sp]
.Ltmp2:
	.loc	0 8 9 prologue_end              @ test.c:8:9
	ldr	r0, [sp]
	.loc	0 8 11 is_stmt 0                @ test.c:8:11
	add	r0, r0, #10
	.loc	0 8 7                           @ test.c:8:7
	str	r0, [sp]
	.loc	0 12 1 is_stmt 1                @ test.c:12:1
	add	sp, sp, #4
	bx	lr
.Ltmp3:
.Lfunc_end1:
	.size	Func1, .Lfunc_end1-Func1
	.cfi_endproc
	.cantunwind
	.fnend
                                        @ -- End function
	.globl	Func2                           @ -- Begin function Func2
	.p2align	2
	.type	Func2,%function
	.code	32                              @ @Func2
Func2:
.Lfunc_begin2:
	.loc	0 14 0                          @ test.c:14:0
	.fnstart
	.cfi_startproc
@ %bb.0:                                @ %entry
	sub	sp, sp, #4
	.cfi_def_cfa_offset 4
	str	r0, [sp]
.Ltmp4:
	.loc	0 15 16 prologue_end            @ test.c:15:16
	ldr	r1, [sp]
	.loc	0 15 14 is_stmt 0               @ test.c:15:14
	ldr	r0, [r1]
	.loc	0 15 19                         @ test.c:15:19
	add	r0, r0, #10
	.loc	0 15 11                         @ test.c:15:11
	str	r0, [r1]
	.loc	0 19 1 is_stmt 1                @ test.c:19:1
	add	sp, sp, #4
	bx	lr
.Ltmp5:
.Lfunc_end2:
	.size	Func2, .Lfunc_end2-Func2
	.cfi_endproc
	.cantunwind
	.fnend
                                        @ -- End function
	.globl	factorial                       @ -- Begin function factorial
	.p2align	2
	.type	factorial,%function
	.code	32                              @ @factorial
factorial:
.Lfunc_begin3:
	.loc	0 28 0                          @ test.c:28:0
	.fnstart
	.cfi_startproc
@ %bb.0:                                @ %entry
	push	{r11, lr}
	.cfi_def_cfa_offset 8
	.cfi_offset lr, -4
	.cfi_offset r11, -8
	mov	r11, sp
	.cfi_def_cfa_register r11
	sub	sp, sp, #16
	str	r0, [sp, #8]
.Ltmp6:
	.loc	0 29 9 prologue_end             @ test.c:29:9
	ldr	r0, [sp, #8]
	.loc	0 29 16 is_stmt 0               @ test.c:29:16
	cmp	r0, #0
	beq	.LBB3_2
	b	.LBB3_1
.LBB3_1:                                @ %lor.lhs.false
	.loc	0 29 19                         @ test.c:29:19
	ldr	r0, [sp, #8]
	.loc	0 29 9                          @ test.c:29:9
	cmp	r0, #1
	bne	.LBB3_3
	b	.LBB3_2
.LBB3_2:                                @ %if.then
	.loc	0 0 9                           @ test.c:0:9
	mov	r0, #1
	.loc	0 30 9 is_stmt 1                @ test.c:30:9
	str	r0, [r11, #-4]
	b	.LBB3_4
.LBB3_3:                                @ %if.end
	.loc	0 32 12                         @ test.c:32:12
	ldr	r0, [sp, #8]
	str	r0, [sp, #4]                    @ 4-byte Spill
	.loc	0 32 28 is_stmt 0               @ test.c:32:28
	sub	r0, r0, #1
	.loc	0 32 16                         @ test.c:32:16
	bl	factorial
	ldr	r1, [sp, #4]                    @ 4-byte Reload
	mov	r2, r0
	.loc	0 32 14                         @ test.c:32:14
	mul	r0, r1, r2
	.loc	0 32 5                          @ test.c:32:5
	str	r0, [r11, #-4]
	b	.LBB3_4
.LBB3_4:                                @ %return
	.loc	0 33 1 is_stmt 1                @ test.c:33:1
	ldr	r0, [r11, #-4]
	mov	sp, r11
	pop	{r11, lr}
	bx	lr
.Ltmp7:
.Lfunc_end3:
	.size	factorial, .Lfunc_end3-factorial
	.cfi_endproc
	.cantunwind
	.fnend
                                        @ -- End function
	.globl	main                            @ -- Begin function main
	.p2align	2
	.type	main,%function
	.code	32                              @ @main
main:
.Lfunc_begin4:
	.loc	0 35 0                          @ test.c:35:0
	.fnstart
	.cfi_startproc
@ %bb.0:                                @ %entry
	push	{r11, lr}
	.cfi_def_cfa_offset 8
	.cfi_offset lr, -4
	.cfi_offset r11, -8
	mov	r11, sp
	.cfi_def_cfa_register r11
	sub	sp, sp, #24
	mov	r0, #0
	str	r0, [sp]                        @ 4-byte Spill
	str	r0, [r11, #-4]
	mov	r0, #5
.Ltmp8:
	.loc	0 36 9 prologue_end             @ test.c:36:9
	str	r0, [r11, #-8]
	.loc	0 37 23                         @ test.c:37:23
	ldr	r0, [r11, #-8]
	.loc	0 37 13 is_stmt 0               @ test.c:37:13
	bl	factorial
	mov	r1, r0
	.loc	0 37 9                          @ test.c:37:9
	ldr	r0, [sp]                        @ 4-byte Reload
	str	r1, [sp, #12]
	.loc	0 48 12 is_stmt 1               @ test.c:48:12
	str	r0, [sp, #8]
	.loc	0 51 14                         @ test.c:51:14
	ldr	r0, .LCPI4_0
	str	r0, [sp, #8]
	.loc	0 54 5                          @ test.c:54:5
	ldr	r0, [sp, #8]
	mov	lr, pc
	bx	r0
	mov	r0, #1
	.loc	0 56 9                          @ test.c:56:9
	str	r0, [sp, #4]
	.loc	0 57 5                          @ test.c:57:5
	b	.LBB4_1
.LBB4_1:                                @ %for.cond
                                        @ =>This Inner Loop Header: Depth=1
	.loc	0 58 11                         @ test.c:58:11
	ldr	r0, [sp, #4]
	add	r0, r0, #1
	str	r0, [sp, #4]
	.loc	0 57 5                          @ test.c:57:5
	b	.LBB4_1
.Ltmp9:
	.p2align	2
@ %bb.2:
	.loc	0 0 5 is_stmt 0                 @ test.c:0:5
.LCPI4_0:
	.long	say_hello
.Lfunc_end4:
	.size	main, .Lfunc_end4-main
	.cfi_endproc
	.cantunwind
	.fnend
                                        @ -- End function
	.type	.L.str,%object                  @ @.str
	.section	.rodata.str1.1,"aMS",%progbits,1
.L.str:
	.asciz	"Hello, \351\227\264\346\216\245\350\260\203\347\224\250\357\274\201\n"
	.size	.L.str, 24

	.section	".note.GNU-stack","",%progbits